; Function Attrs: nounwind uwtable
define ptr @l_Lean_RBNode_foldM___at_Lean_PrefixTreeNode_foldMatchingM_fold___spec__1___rarg___lambda__2(ptr noundef %0, ptr noundef %1, ptr noundef %2, ptr noundef %3, ptr noundef %4, ptr noundef %5) #1 {
  %7 = ptrtoint ptr %1 to i64
  %8 = and i64 %7, 1
  %.not = icmp eq i64 %8, 0
  br i1 %.not, label %9, label %lean_inc.exit16

9:                                                ; preds = %6
  %.val.i = load i32, ptr %1, align 4, !tbaa !8
  %10 = icmp sgt i32 %.val.i, 0
  br i1 %10, label %11, label %13, !prof !11

11:                                               ; preds = %9
  %12 = add nuw i32 %.val.i, 1
  store i32 %12, ptr %1, align 4, !tbaa !8
  br label %lean_inc.exit16

13:                                               ; preds = %9
  %.not.i = icmp eq i32 %.val.i, 0
  br i1 %.not.i, label %lean_inc.exit16, label %14

14:                                               ; preds = %13
  tail call void @lean_inc_ref_cold(ptr noundef nonnull %1) #4
  br label %lean_inc.exit16

lean_inc.exit16:                                  ; preds = %14, %13, %11, %6
  %15 = ptrtoint ptr %0 to i64
  %16 = and i64 %15, 1
  %.not20 = icmp eq i64 %16, 0
  br i1 %.not20, label %17, label %lean_inc.exit

17:                                               ; preds = %lean_inc.exit16
  %.val.i17 = load i32, ptr %0, align 4, !tbaa !8
  %18 = icmp sgt i32 %.val.i17, 0
  br i1 %18, label %19, label %21, !prof !11

19:                                               ; preds = %17
  %20 = add nuw i32 %.val.i17, 1
  store i32 %20, ptr %0, align 4, !tbaa !8
  br label %lean_inc.exit

21:                                               ; preds = %17
  %.not.i18 = icmp eq i32 %.val.i17, 0
  br i1 %.not.i18, label %lean_inc.exit, label %22

22:                                               ; preds = %21
  tail call void @lean_inc_ref_cold(ptr noundef nonnull %0) #4
  br label %lean_inc.exit

lean_inc.exit:                                    ; preds = %22, %21, %19, %lean_inc.exit16
  %23 = tail call ptr @l_Lean_PrefixTreeNode_foldMatchingM_fold___rarg(ptr noundef %0, ptr noundef %1, ptr noundef %2, ptr noundef %5)
  tail call void @lean_inc_heartbeat() #4
  %24 = tail call noalias ptr @mi_malloc_small(i64 noundef 48) #4
  %25 = icmp eq ptr %24, null
  br i1 %25, label %26, label %lean_alloc_closure.exit

26:                                               ; preds = %lean_inc.exit
  tail call void @lean_internal_panic_out_of_memory() #5
  unreachable

lean_alloc_closure.exit:                          ; preds = %lean_inc.exit
  %27 = getelementptr inbounds nuw i8, ptr %24, i64 4
  store i32 1, ptr %24, align 4, !tbaa !8
  store i32 -184549328, ptr %27, align 4
  %28 = getelementptr inbounds nuw i8, ptr %24, i64 8
  store ptr @l_Lean_RBNode_foldM___at_Lean_PrefixTreeNode_foldMatchingM_fold___spec__1___rarg___lambda__1, ptr %28, align 8, !tbaa !4
  %29 = getelementptr inbounds nuw i8, ptr %24, i64 16
  store i16 4, ptr %29, align 8, !tbaa !12
  %30 = getelementptr inbounds nuw i8, ptr %24, i64 18
  store i16 3, ptr %30, align 2, !tbaa !12
  %31 = getelementptr inbounds nuw i8, ptr %24, i64 24
  store ptr %0, ptr %31, align 8, !tbaa !4
  %32 = getelementptr inbounds nuw i8, ptr %24, i64 32
  store ptr %1, ptr %32, align 8, !tbaa !4
  %33 = getelementptr inbounds nuw i8, ptr %24, i64 40
  store ptr %3, ptr %33, align 8, !tbaa !4
  %34 = tail call ptr @lean_apply_4(ptr noundef %4, ptr noundef nonnull inttoptr (i64 1 to ptr), ptr noundef nonnull inttoptr (i64 1 to ptr), ptr noundef %23, ptr noundef nonnull %24) #4
  ret ptr %34
}